ccopy_reg
_reconstructor
p0
(c__main__
mdict
p1
c__builtin__
dict
p2
(dp3
F2.0
(lp4
(F20.0
F2.0
cnumpy.core.multiarray
_reconstruct
p5
(cnumpy
ndarray
p6
(I0
tp7
S'b'
p8
tp9
Rp10
(I1
(I1
tp11
cnumpy
dtype
p12
(S'f8'
p13
I0
I1
tp14
Rp15
(I3
S'<'
p16
NNNI-1
I-1
I0
tp17
bI00
S'\x00\x00\x00\x00\x00\x00\xf0?'
p18
tp19
bg5
(g6
(I0
tp20
g8
tp21
Rp22
(I1
(I1
tp23
g15
I00
S'\x00\x00\x00\x00\x00\x00\xf0?'
p24
tp25
bg5
(g6
(I0
tp26
g8
tp27
Rp28
(I1
(I1
tp29
g15
I00
S'-C\x1c\xeb\xe26*?'
p30
tp31
bg5
(g6
(I0
tp32
g8
tp33
Rp34
(I1
(I1
tp35
g15
I00
S'\x00\x00\x00\x00\x00j\xf8@'
p36
tp37
b(dp38
S'freq'
p39
I50
sS'howmany'
p40
S'8'
p41
stp42
astp43
Rp44
.